target datalayout = "e-m:e-p270:32:32-p271:32:32-p272:64:64-i64:64-i128:128-f80:128-n8:16:32:64-S128"
target triple = "x86_64-pc-linux-gnu"

%"struct.std::array.3" = type { [12 x ptr] }
%"struct.cv::gapi::wip::onevpl::CfgParam" = type { %"class.std::shared_ptr" }
%"class.std::shared_ptr" = type { %"class.std::__shared_ptr" }
%"class.std::__shared_ptr" = type { ptr, %"class.std::__shared_count" }
%"class.std::__shared_count" = type { ptr }
%"struct.cv::gapi::wip::onevpl::CfgParam::Priv" = type <{ %"class.std::__cxx11::basic_string", %"class.cv::util::variant", i8, [7 x i8] }>
%"class.std::__cxx11::basic_string" = type { %"struct.std::__cxx11::basic_string<char>::_Alloc_hider", i64, %union.anon }
%"struct.std::__cxx11::basic_string<char>::_Alloc_hider" = type { ptr }
%union.anon = type { i64, [8 x i8] }
%"class.cv::util::variant" = type { i64, [1 x %"union.std::aligned_storage<32, 8>::type"] }
%"union.std::aligned_storage<32, 8>::type" = type { [32 x i8] }

; Function Attrs: mustprogress nounwind uwtable
define linkonce_odr hidden noundef nonnull align 8 dereferenceable(8) ptr @_ZNSt14__array_traitsIPFbPKNSt15aligned_storageILm32ELm8EE4typeES4_ELm12EE6_S_refERA12_KS6_m(ptr noundef nonnull align 8 dereferenceable(96) %0, i64 noundef %1) #3 comdat align 2 {
  %3 = alloca ptr, align 8
  %4 = alloca i64, align 8
  store ptr %0, ptr %3, align 8, !tbaa !71
  store i64 %1, ptr %4, align 8, !tbaa !27
  %5 = load ptr, ptr %3, align 8, !tbaa !71
  %6 = load i64, ptr %4, align 8, !tbaa !27
  %7 = getelementptr inbounds nuw [12 x ptr], ptr %5, i64 0, i64 %6
  ret ptr %7
}

; Function Attrs: mustprogress nounwind uwtable
define available_externally noundef ptr @_ZNKSt7__cxx1112basic_stringIcSt11char_traitsIcESaIcEE7_M_dataEv(ptr noundef nonnull align 8 dereferenceable(32) %0) #3 align 2 {
  %2 = alloca ptr, align 8
  store ptr %0, ptr %2, align 8, !tbaa !8
  %3 = load ptr, ptr %2, align 8
  %4 = getelementptr inbounds nuw %"class.std::__cxx11::basic_string", ptr %3, i32 0, i32 0
  %5 = getelementptr inbounds nuw %"struct.std::__cxx11::basic_string<char>::_Alloc_hider", ptr %4, i32 0, i32 0
  %6 = load ptr, ptr %5, align 8, !tbaa !54
  ret ptr %6
}

; Function Attrs: mustprogress nounwind uwtable
define linkonce_odr hidden noundef nonnull align 8 dereferenceable(8) ptr @_ZNKSt5arrayIPFbPKNSt15aligned_storageILm32ELm8EE4typeES4_ELm12EEixEm(ptr noundef nonnull align 8 dereferenceable(96) %0, i64 noundef %1) #3 comdat align 2 {
  %3 = alloca ptr, align 8
  %4 = alloca i64, align 8
  store ptr %0, ptr %3, align 8, !tbaa !107
  store i64 %1, ptr %4, align 8, !tbaa !27
  %5 = load ptr, ptr %3, align 8
  %6 = getelementptr inbounds nuw %"struct.std::array.3", ptr %5, i32 0, i32 0
  %7 = load i64, ptr %4, align 8, !tbaa !27
  %8 = call noundef nonnull align 8 dereferenceable(8) ptr @_ZNSt14__array_traitsIPFbPKNSt15aligned_storageILm32ELm8EE4typeES4_ELm12EE6_S_refERA12_KS6_m(ptr noundef nonnull align 8 dereferenceable(96) %6, i64 noundef %7) #21
  ret ptr %8
}

; Function Attrs: mustprogress nounwind uwtable
define linkonce_odr hidden noundef i64 @_ZNK2cv4util7variantIJhatsjimlfdPvNSt7__cxx1112basic_stringIcSt11char_traitsIcESaIcEEEEE5indexEv(ptr noundef nonnull align 8 dereferenceable(40) %0) #3 comdat align 2 {
  %2 = alloca ptr, align 8
  store ptr %0, ptr %2, align 8, !tbaa !10
  %3 = load ptr, ptr %2, align 8
  %4 = getelementptr inbounds nuw %"class.cv::util::variant", ptr %3, i32 0, i32 0
  %5 = load i64, ptr %4, align 8, !tbaa !47
  ret i64 %5
}

; Function Attrs: mustprogress nounwind uwtable
define linkonce_odr hidden noundef i32 @_ZNSt11char_traitsIcE7compareEPKcS2_m(ptr noundef %0, ptr noundef %1, i64 noundef %2) #3 comdat align 2 {
  %4 = alloca i32, align 4
  %5 = alloca ptr, align 8
  %6 = alloca ptr, align 8
  %7 = alloca i64, align 8
  store ptr %0, ptr %5, align 8, !tbaa !32
  store ptr %1, ptr %6, align 8, !tbaa !32
  store i64 %2, ptr %7, align 8, !tbaa !27
  %8 = load i64, ptr %7, align 8, !tbaa !27
  %9 = icmp eq i64 %8, 0
  br i1 %9, label %10, label %11

10:                                               ; preds = %3
  store i32 0, ptr %4, align 4
  br label %16

11:                                               ; preds = %3
  %12 = load ptr, ptr %5, align 8, !tbaa !32
  %13 = load ptr, ptr %6, align 8, !tbaa !32
  %14 = load i64, ptr %7, align 8, !tbaa !27
  %15 = call i32 @memcmp(ptr noundef %12, ptr noundef %13, i64 noundef %14) #21
  store i32 %15, ptr %4, align 4
  br label %16

16:                                               ; preds = %11, %10
  %17 = load i32, ptr %4, align 4
  ret i32 %17
}

; Function Attrs: mustprogress nounwind uwtable
define available_externally noundef ptr @_ZNKSt7__cxx1112basic_stringIcSt11char_traitsIcESaIcEE4dataEv(ptr noundef nonnull align 8 dereferenceable(32) %0) #3 align 2 {
  %2 = alloca ptr, align 8
  store ptr %0, ptr %2, align 8, !tbaa !8
  %3 = load ptr, ptr %2, align 8
  %4 = call noundef ptr @_ZNKSt7__cxx1112basic_stringIcSt11char_traitsIcESaIcEE7_M_dataEv(ptr noundef nonnull align 8 dereferenceable(32) %3)
  ret ptr %4
}

; Function Attrs: mustprogress nounwind uwtable
define available_externally noundef i64 @_ZNKSt7__cxx1112basic_stringIcSt11char_traitsIcESaIcEE4sizeEv(ptr noundef nonnull align 8 dereferenceable(32) %0) #3 align 2 {
  %2 = alloca ptr, align 8
  store ptr %0, ptr %2, align 8, !tbaa !8
  %3 = load ptr, ptr %2, align 8
  %4 = getelementptr inbounds nuw %"class.std::__cxx11::basic_string", ptr %3, i32 0, i32 1
  %5 = load i64, ptr %4, align 8, !tbaa !55
  ret i64 %5
}

; Function Attrs: mustprogress uwtable
define linkonce_odr hidden noundef zeroext i1 @_ZN2cv4utileqIJhatsjimlfdPvNSt7__cxx1112basic_stringIcSt11char_traitsIcESaIcEEEEEEbRKNS0_7variantIJDpT_EEESE_(ptr noundef nonnull align 8 dereferenceable(40) %0, ptr noundef nonnull align 8 dereferenceable(40) %1) #0 comdat {
  %3 = alloca i1, align 1
  %4 = alloca ptr, align 8
  %5 = alloca ptr, align 8
  store ptr %0, ptr %4, align 8, !tbaa !10
  store ptr %1, ptr %5, align 8, !tbaa !10
  %6 = load ptr, ptr %4, align 8, !tbaa !10
  %7 = call noundef i64 @_ZNK2cv4util7variantIJhatsjimlfdPvNSt7__cxx1112basic_stringIcSt11char_traitsIcESaIcEEEEE5indexEv(ptr noundef nonnull align 8 dereferenceable(40) %6) #21
  %8 = load ptr, ptr %5, align 8, !tbaa !10
  %9 = call noundef i64 @_ZNK2cv4util7variantIJhatsjimlfdPvNSt7__cxx1112basic_stringIcSt11char_traitsIcESaIcEEEEE5indexEv(ptr noundef nonnull align 8 dereferenceable(40) %8) #21
  %10 = icmp ne i64 %7, %9
  br i1 %10, label %11, label %12

11:                                               ; preds = %2
  store i1 false, ptr %3, align 1
  br label %24

12:                                               ; preds = %2
  %13 = load ptr, ptr %4, align 8, !tbaa !10
  %14 = call noundef i64 @_ZNK2cv4util7variantIJhatsjimlfdPvNSt7__cxx1112basic_stringIcSt11char_traitsIcESaIcEEEEE5indexEv(ptr noundef nonnull align 8 dereferenceable(40) %13) #21
  %15 = call noundef nonnull align 8 dereferenceable(8) ptr @_ZNKSt5arrayIPFbPKNSt15aligned_storageILm32ELm8EE4typeES4_ELm12EEixEm(ptr noundef nonnull align 8 dereferenceable(96) @_ZZN2cv4utileqIJhatsjimlfdPvNSt7__cxx1112basic_stringIcSt11char_traitsIcESaIcEEEEEEbRKNS0_7variantIJDpT_EEESE_E3eqs, i64 noundef %14) #21
  %16 = load ptr, ptr %15, align 8, !tbaa !48
  %17 = load ptr, ptr %4, align 8, !tbaa !10
  %18 = getelementptr inbounds nuw %"class.cv::util::variant", ptr %17, i32 0, i32 1
  %19 = getelementptr inbounds [1 x %"union.std::aligned_storage<32, 8>::type"], ptr %18, i64 0, i64 0
  %20 = load ptr, ptr %5, align 8, !tbaa !10
  %21 = getelementptr inbounds nuw %"class.cv::util::variant", ptr %20, i32 0, i32 1
  %22 = getelementptr inbounds [1 x %"union.std::aligned_storage<32, 8>::type"], ptr %21, i64 0, i64 0
  %23 = call noundef zeroext i1 %16(ptr noundef %19, ptr noundef %22)
  store i1 %23, ptr %3, align 1
  br label %24

24:                                               ; preds = %12, %11
  %25 = load i1, ptr %3, align 1
  ret i1 %25
}

; Function Attrs: mustprogress nounwind uwtable
define linkonce_odr hidden noundef nonnull align 8 dereferenceable(40) ptr @_ZNK2cv4gapi3wip6onevpl8CfgParam4Priv14get_value_implB5cxx11Ev(ptr noundef nonnull align 8 dereferenceable(73) %0) #3 comdat align 2 {
  %2 = alloca ptr, align 8
  store ptr %0, ptr %2, align 8, !tbaa !16
  %3 = load ptr, ptr %2, align 8
  %4 = getelementptr inbounds nuw %"struct.cv::gapi::wip::onevpl::CfgParam::Priv", ptr %3, i32 0, i32 1
  ret ptr %4
}

; Function Attrs: inlinehint mustprogress nounwind uwtable
define linkonce_odr noundef zeroext i1 @_ZSteqIcEN9__gnu_cxx11__enable_ifIXsr9__is_charIT_EE7__valueEbE6__typeERKNSt7__cxx1112basic_stringIS2_St11char_traitsIS2_ESaIS2_EEESC_(ptr noundef nonnull align 8 dereferenceable(32) %0, ptr noundef nonnull align 8 dereferenceable(32) %1) #8 comdat {
  %3 = alloca ptr, align 8
  %4 = alloca ptr, align 8
  store ptr %0, ptr %3, align 8, !tbaa !8
  store ptr %1, ptr %4, align 8, !tbaa !8
  %5 = load ptr, ptr %3, align 8, !tbaa !8
  %6 = call noundef i64 @_ZNKSt7__cxx1112basic_stringIcSt11char_traitsIcESaIcEE4sizeEv(ptr noundef nonnull align 8 dereferenceable(32) %5) #21
  %7 = load ptr, ptr %4, align 8, !tbaa !8
  %8 = call noundef i64 @_ZNKSt7__cxx1112basic_stringIcSt11char_traitsIcESaIcEE4sizeEv(ptr noundef nonnull align 8 dereferenceable(32) %7) #21
  %9 = icmp eq i64 %6, %8
  br i1 %9, label %10, label %20

10:                                               ; preds = %2
  %11 = load ptr, ptr %3, align 8, !tbaa !8
  %12 = call noundef ptr @_ZNKSt7__cxx1112basic_stringIcSt11char_traitsIcESaIcEE4dataEv(ptr noundef nonnull align 8 dereferenceable(32) %11) #21
  %13 = load ptr, ptr %4, align 8, !tbaa !8
  %14 = call noundef ptr @_ZNKSt7__cxx1112basic_stringIcSt11char_traitsIcESaIcEE4dataEv(ptr noundef nonnull align 8 dereferenceable(32) %13) #21
  %15 = load ptr, ptr %3, align 8, !tbaa !8
  %16 = call noundef i64 @_ZNKSt7__cxx1112basic_stringIcSt11char_traitsIcESaIcEE4sizeEv(ptr noundef nonnull align 8 dereferenceable(32) %15) #21
  %17 = call noundef i32 @_ZNSt11char_traitsIcE7compareEPKcS2_m(ptr noundef %12, ptr noundef %14, i64 noundef %16)
  %18 = icmp ne i32 %17, 0
  %19 = xor i1 %18, true
  br label %20

20:                                               ; preds = %10, %2
  %21 = phi i1 [ false, %2 ], [ %19, %10 ]
  ret i1 %21
}

; Function Attrs: mustprogress nounwind uwtable
define linkonce_odr hidden noundef nonnull align 8 dereferenceable(32) ptr @_ZNK2cv4gapi3wip6onevpl8CfgParam4Priv13get_name_implB5cxx11Ev(ptr noundef nonnull align 8 dereferenceable(73) %0) #3 comdat align 2 {
  %2 = alloca ptr, align 8
  store ptr %0, ptr %2, align 8, !tbaa !16
  %3 = load ptr, ptr %2, align 8
  %4 = getelementptr inbounds nuw %"struct.cv::gapi::wip::onevpl::CfgParam::Priv", ptr %3, i32 0, i32 0
  ret ptr %4
}

; Function Attrs: mustprogress nounwind uwtable
define linkonce_odr hidden noundef ptr @_ZNKSt12__shared_ptrIN2cv4gapi3wip6onevpl8CfgParam4PrivELN9__gnu_cxx12_Lock_policyE2EE3getEv(ptr noundef nonnull align 8 dereferenceable(16) %0) #3 comdat align 2 {
  %2 = alloca ptr, align 8
  store ptr %0, ptr %2, align 8, !tbaa !87
  %3 = load ptr, ptr %2, align 8
  %4 = getelementptr inbounds nuw %"class.std::__shared_ptr", ptr %3, i32 0, i32 0
  %5 = load ptr, ptr %4, align 8, !tbaa !89
  ret ptr %5
}

; Function Attrs: mustprogress uwtable
define linkonce_odr hidden noundef zeroext i1 @_ZNK2cv4gapi3wip6onevpl8CfgParam4PriveqERKS4_(ptr noundef nonnull align 8 dereferenceable(73) %0, ptr noundef nonnull align 8 dereferenceable(73) %1) #0 comdat align 2 {
  %3 = alloca ptr, align 8
  %4 = alloca ptr, align 8
  store ptr %0, ptr %3, align 8, !tbaa !16
  store ptr %1, ptr %4, align 8, !tbaa !16
  %5 = load ptr, ptr %3, align 8
  %6 = call noundef nonnull align 8 dereferenceable(32) ptr @_ZNK2cv4gapi3wip6onevpl8CfgParam4Priv13get_name_implB5cxx11Ev(ptr noundef nonnull align 8 dereferenceable(73) %5)
  %7 = load ptr, ptr %4, align 8, !tbaa !16
  %8 = call noundef nonnull align 8 dereferenceable(32) ptr @_ZNK2cv4gapi3wip6onevpl8CfgParam4Priv13get_name_implB5cxx11Ev(ptr noundef nonnull align 8 dereferenceable(73) %7)
  %9 = call noundef zeroext i1 @_ZSteqIcEN9__gnu_cxx11__enable_ifIXsr9__is_charIT_EE7__valueEbE6__typeERKNSt7__cxx1112basic_stringIS2_St11char_traitsIS2_ESaIS2_EEESC_(ptr noundef nonnull align 8 dereferenceable(32) %6, ptr noundef nonnull align 8 dereferenceable(32) %8) #21
  br i1 %9, label %10, label %15

10:                                               ; preds = %2
  %11 = call noundef nonnull align 8 dereferenceable(40) ptr @_ZNK2cv4gapi3wip6onevpl8CfgParam4Priv14get_value_implB5cxx11Ev(ptr noundef nonnull align 8 dereferenceable(73) %5)
  %12 = load ptr, ptr %4, align 8, !tbaa !16
  %13 = call noundef nonnull align 8 dereferenceable(40) ptr @_ZNK2cv4gapi3wip6onevpl8CfgParam4Priv14get_value_implB5cxx11Ev(ptr noundef nonnull align 8 dereferenceable(73) %12)
  %14 = call noundef zeroext i1 @_ZN2cv4utileqIJhatsjimlfdPvNSt7__cxx1112basic_stringIcSt11char_traitsIcESaIcEEEEEEbRKNS0_7variantIJDpT_EEESE_(ptr noundef nonnull align 8 dereferenceable(40) %11, ptr noundef nonnull align 8 dereferenceable(40) %13)
  br label %15

15:                                               ; preds = %10, %2
  %16 = phi i1 [ false, %2 ], [ %14, %10 ]
  ret i1 %16
}

; Function Attrs: mustprogress nounwind uwtable
define linkonce_odr hidden noundef ptr @_ZNKSt19__shared_ptr_accessIN2cv4gapi3wip6onevpl8CfgParam4PrivELN9__gnu_cxx12_Lock_policyE2ELb0ELb0EE6_M_getEv(ptr noundef nonnull align 1 dereferenceable(1) %0) #3 comdat align 2 {
  %2 = alloca ptr, align 8
  store ptr %0, ptr %2, align 8, !tbaa !43
  %3 = load ptr, ptr %2, align 8
  %4 = call noundef ptr @_ZNKSt12__shared_ptrIN2cv4gapi3wip6onevpl8CfgParam4PrivELN9__gnu_cxx12_Lock_policyE2EE3getEv(ptr noundef nonnull align 8 dereferenceable(16) %3) #21
  ret ptr %4
}

; Function Attrs: mustprogress uwtable
define linkonce_odr hidden noundef zeroext i1 @_ZNK2cv4gapi3wip6onevpl8CfgParam4PrivneERKS4_(ptr noundef nonnull align 8 dereferenceable(73) %0, ptr noundef nonnull align 8 dereferenceable(73) %1) #0 comdat align 2 {
  %3 = alloca ptr, align 8
  %4 = alloca ptr, align 8
  store ptr %0, ptr %3, align 8, !tbaa !16
  store ptr %1, ptr %4, align 8, !tbaa !16
  %5 = load ptr, ptr %3, align 8
  %6 = load ptr, ptr %4, align 8, !tbaa !16
  %7 = call noundef zeroext i1 @_ZNK2cv4gapi3wip6onevpl8CfgParam4PriveqERKS4_(ptr noundef nonnull align 8 dereferenceable(73) %5, ptr noundef nonnull align 8 dereferenceable(73) %6)
  %8 = xor i1 %7, true
  ret i1 %8
}

; Function Attrs: mustprogress nounwind uwtable
define linkonce_odr hidden noundef nonnull align 8 dereferenceable(73) ptr @_ZNKSt19__shared_ptr_accessIN2cv4gapi3wip6onevpl8CfgParam4PrivELN9__gnu_cxx12_Lock_policyE2ELb0ELb0EEdeEv(ptr noundef nonnull align 1 dereferenceable(1) %0) #3 comdat align 2 {
  %2 = alloca ptr, align 8
  store ptr %0, ptr %2, align 8, !tbaa !43
  %3 = load ptr, ptr %2, align 8
  br label %4

4:                                                ; preds = %1
  br label %5

5:                                                ; preds = %4
  br label %6

6:                                                ; preds = %5
  %7 = call noundef ptr @_ZNKSt19__shared_ptr_accessIN2cv4gapi3wip6onevpl8CfgParam4PrivELN9__gnu_cxx12_Lock_policyE2ELb0ELb0EE6_M_getEv(ptr noundef nonnull align 1 dereferenceable(1) %3) #21
  ret ptr %7
}

; Function Attrs: mustprogress uwtable
define noundef zeroext i1 @_ZNK2cv4gapi3wip6onevpl8CfgParamneERKS3_(ptr noundef nonnull align 8 dereferenceable(16) %0, ptr noundef nonnull align 8 dereferenceable(16) %1) #0 align 2 {
  %3 = alloca ptr, align 8
  %4 = alloca ptr, align 8
  store ptr %0, ptr %3, align 8, !tbaa !3
  store ptr %1, ptr %4, align 8, !tbaa !3
  %5 = load ptr, ptr %3, align 8
  %6 = getelementptr inbounds nuw %"struct.cv::gapi::wip::onevpl::CfgParam", ptr %5, i32 0, i32 0
  %7 = call noundef nonnull align 8 dereferenceable(73) ptr @_ZNKSt19__shared_ptr_accessIN2cv4gapi3wip6onevpl8CfgParam4PrivELN9__gnu_cxx12_Lock_policyE2ELb0ELb0EEdeEv(ptr noundef nonnull align 1 dereferenceable(1) %6) #21
  %8 = load ptr, ptr %4, align 8, !tbaa !3
  %9 = getelementptr inbounds nuw %"struct.cv::gapi::wip::onevpl::CfgParam", ptr %8, i32 0, i32 0
  %10 = call noundef nonnull align 8 dereferenceable(73) ptr @_ZNKSt19__shared_ptr_accessIN2cv4gapi3wip6onevpl8CfgParam4PrivELN9__gnu_cxx12_Lock_policyE2ELb0ELb0EEdeEv(ptr noundef nonnull align 1 dereferenceable(1) %9) #21
  %11 = call noundef zeroext i1 @_ZNK2cv4gapi3wip6onevpl8CfgParam4PrivneERKS4_(ptr noundef nonnull align 8 dereferenceable(73) %7, ptr noundef nonnull align 8 dereferenceable(73) %10)
  ret i1 %11
}