; Function Attrs: mustprogress uwtable
define noundef zeroext i1 @_ZNK2cv4gapi3wip6onevpl8CfgParamneERKS3_(ptr noundef nonnull readonly align 8 captures(none) dereferenceable(16) %0, ptr noundef nonnull readonly align 8 captures(none) dereferenceable(16) %1) local_unnamed_addr #0 align 2 {
  %3 = load ptr, ptr %0, align 8, !tbaa !21
  %4 = load ptr, ptr %1, align 8, !tbaa !21
  %5 = getelementptr inbounds nuw i8, ptr %3, i64 8
  %6 = load i64, ptr %5, align 8, !tbaa !12
  %7 = getelementptr inbounds nuw i8, ptr %4, i64 8
  %8 = load i64, ptr %7, align 8, !tbaa !12
  %9 = icmp eq i64 %6, %8
  br i1 %9, label %10, label %_ZNK2cv4gapi3wip6onevpl8CfgParam4PrivneERKS4_.exit

10:                                               ; preds = %2
  %11 = icmp eq i64 %6, 0
  br i1 %11, label %_ZSteqIcEN9__gnu_cxx11__enable_ifIXsr9__is_charIT_EE7__valueEbE6__typeERKNSt7__cxx1112basic_stringIS2_St11char_traitsIS2_ESaIS2_EEESC_.exit.thread.i.i, label %_ZSteqIcEN9__gnu_cxx11__enable_ifIXsr9__is_charIT_EE7__valueEbE6__typeERKNSt7__cxx1112basic_stringIS2_St11char_traitsIS2_ESaIS2_EEESC_.exit.i.i

_ZSteqIcEN9__gnu_cxx11__enable_ifIXsr9__is_charIT_EE7__valueEbE6__typeERKNSt7__cxx1112basic_stringIS2_St11char_traitsIS2_ESaIS2_EEESC_.exit.i.i: ; preds = %10
  %12 = load ptr, ptr %4, align 8, !tbaa !9
  %13 = load ptr, ptr %3, align 8, !tbaa !9
  %bcmp.i.i.i = tail call i32 @bcmp(ptr %13, ptr %12, i64 %6)
  %14 = icmp eq i32 %bcmp.i.i.i, 0
  br i1 %14, label %_ZSteqIcEN9__gnu_cxx11__enable_ifIXsr9__is_charIT_EE7__valueEbE6__typeERKNSt7__cxx1112basic_stringIS2_St11char_traitsIS2_ESaIS2_EEESC_.exit.thread.i.i, label %_ZNK2cv4gapi3wip6onevpl8CfgParam4PrivneERKS4_.exit

_ZSteqIcEN9__gnu_cxx11__enable_ifIXsr9__is_charIT_EE7__valueEbE6__typeERKNSt7__cxx1112basic_stringIS2_St11char_traitsIS2_ESaIS2_EEESC_.exit.thread.i.i: ; preds = %_ZSteqIcEN9__gnu_cxx11__enable_ifIXsr9__is_charIT_EE7__valueEbE6__typeERKNSt7__cxx1112basic_stringIS2_St11char_traitsIS2_ESaIS2_EEESC_.exit.i.i, %10
  %15 = getelementptr inbounds nuw i8, ptr %3, i64 32
  %16 = getelementptr inbounds nuw i8, ptr %4, i64 32
  %17 = load i64, ptr %15, align 8, !tbaa !15
  %18 = load i64, ptr %16, align 8, !tbaa !15
  %.not.i.i.i = icmp eq i64 %17, %18
  br i1 %.not.i.i.i, label %19, label %_ZNK2cv4gapi3wip6onevpl8CfgParam4PrivneERKS4_.exit

19:                                               ; preds = %_ZSteqIcEN9__gnu_cxx11__enable_ifIXsr9__is_charIT_EE7__valueEbE6__typeERKNSt7__cxx1112basic_stringIS2_St11char_traitsIS2_ESaIS2_EEESC_.exit.thread.i.i
  %20 = getelementptr inbounds nuw [12 x ptr], ptr @_ZZN2cv4utileqIJhatsjimlfdPvNSt7__cxx1112basic_stringIcSt11char_traitsIcESaIcEEEEEEbRKNS0_7variantIJDpT_EEESE_E3eqs, i64 0, i64 %17
  %21 = load ptr, ptr %20, align 8, !tbaa !17
  %22 = getelementptr inbounds nuw i8, ptr %3, i64 40
  %23 = getelementptr inbounds nuw i8, ptr %4, i64 40
  %24 = tail call noundef zeroext i1 %21(ptr noundef nonnull %22, ptr noundef nonnull %23)
  %25 = xor i1 %24, true
  br label %_ZNK2cv4gapi3wip6onevpl8CfgParam4PrivneERKS4_.exit

_ZNK2cv4gapi3wip6onevpl8CfgParam4PrivneERKS4_.exit: ; preds = %2, %_ZSteqIcEN9__gnu_cxx11__enable_ifIXsr9__is_charIT_EE7__valueEbE6__typeERKNSt7__cxx1112basic_stringIS2_St11char_traitsIS2_ESaIS2_EEESC_.exit.i.i, %_ZSteqIcEN9__gnu_cxx11__enable_ifIXsr9__is_charIT_EE7__valueEbE6__typeERKNSt7__cxx1112basic_stringIS2_St11char_traitsIS2_ESaIS2_EEESC_.exit.thread.i.i, %19
  %26 = phi i1 [ true, %_ZSteqIcEN9__gnu_cxx11__enable_ifIXsr9__is_charIT_EE7__valueEbE6__typeERKNSt7__cxx1112basic_stringIS2_St11char_traitsIS2_ESaIS2_EEESC_.exit.i.i ], [ %25, %19 ], [ true, %_ZSteqIcEN9__gnu_cxx11__enable_ifIXsr9__is_charIT_EE7__valueEbE6__typeERKNSt7__cxx1112basic_stringIS2_St11char_traitsIS2_ESaIS2_EEESC_.exit.thread.i.i ], [ true, %2 ]
  ret i1 %26
}